; Function Attrs: mustprogress uwtable
define dso_local void @_ZN7testing14InitGoogleMockEv() local_unnamed_addr #3 {
  %1 = alloca i32, align 4
  %2 = alloca ptr, align 8
  call void @llvm.lifetime.start.p0(i64 4, ptr nonnull %1) #34
  store i32 1, ptr %1, align 4, !tbaa !243
  call void @llvm.lifetime.start.p0(i64 8, ptr nonnull %2) #34
  store ptr @.str.81, ptr %2, align 8, !tbaa !85
  call void @_ZN7testing8internal18InitGoogleMockImplIcEEvPiPPT_(ptr noundef nonnull %1, ptr noundef nonnull %2)
  call void @llvm.lifetime.end.p0(i64 8, ptr nonnull %2) #34
  call void @llvm.lifetime.end.p0(i64 4, ptr nonnull %1) #34
  ret void
}